target datalayout = "e-m:e-p270:32:32-p271:32:32-p272:64:64-i64:64-i128:128-f80:128-n8:16:32:64-S128"
target triple = "x86_64-pc-linux-gnu"

%struct.JNINativeInterface_ = type { ptr, ptr, ptr, ptr, ptr, ptr, ptr, ptr, ptr, ptr, ptr, ptr, ptr, ptr, ptr, ptr, ptr, ptr, ptr, ptr, ptr, ptr, ptr, ptr, ptr, ptr, ptr, ptr, ptr, ptr, ptr, ptr, ptr, ptr, ptr, ptr, ptr, ptr, ptr, ptr, ptr, ptr, ptr, ptr, ptr, ptr, ptr, ptr, ptr, ptr, ptr, ptr, ptr, ptr, ptr, ptr, ptr, ptr, ptr, ptr, ptr, ptr, ptr, ptr, ptr, ptr, ptr, ptr, ptr, ptr, ptr, ptr, ptr, ptr, ptr, ptr, ptr, ptr, ptr, ptr, ptr, ptr, ptr, ptr, ptr, ptr, ptr, ptr, ptr, ptr, ptr, ptr, ptr, ptr, ptr, ptr, ptr, ptr, ptr, ptr, ptr, ptr, ptr, ptr, ptr, ptr, ptr, ptr, ptr, ptr, ptr, ptr, ptr, ptr, ptr, ptr, ptr, ptr, ptr, ptr, ptr, ptr, ptr, ptr, ptr, ptr, ptr, ptr, ptr, ptr, ptr, ptr, ptr, ptr, ptr, ptr, ptr, ptr, ptr, ptr, ptr, ptr, ptr, ptr, ptr, ptr, ptr, ptr, ptr, ptr, ptr, ptr, ptr, ptr, ptr, ptr, ptr, ptr, ptr, ptr, ptr, ptr, ptr, ptr, ptr, ptr, ptr, ptr, ptr, ptr, ptr, ptr, ptr, ptr, ptr, ptr, ptr, ptr, ptr, ptr, ptr, ptr, ptr, ptr, ptr, ptr, ptr, ptr, ptr, ptr, ptr, ptr, ptr, ptr, ptr, ptr, ptr, ptr, ptr, ptr, ptr, ptr, ptr, ptr, ptr, ptr, ptr, ptr, ptr, ptr, ptr, ptr, ptr, ptr, ptr, ptr, ptr, ptr, ptr, ptr, ptr, ptr, ptr, ptr, ptr, ptr, ptr, ptr, ptr, ptr, ptr, ptr, ptr, ptr, ptr }
%struct.CK_SSL3_RANDOM_DATA = type { ptr, i64, ptr, i64 }
%struct.CK_TLS12_KEY_MAT_PARAMS = type { i64, i64, i64, i8, %struct.CK_SSL3_RANDOM_DATA, ptr, i64 }

@.str.17 = private unnamed_addr constant [2 x i8] c"J\00", align 1
@.str.30 = private unnamed_addr constant [17 x i8] c"prfHashMechanism\00", align 1
@.str.50 = private unnamed_addr constant [52 x i8] c"sun/security/pkcs11/wrapper/CK_TLS12_KEY_MAT_PARAMS\00", align 1

; Function Attrs: nounwind uwtable
define hidden ptr @jTls12KeyMatParamToCKTls12KeyMatParamPtr(ptr noundef %0, ptr noundef %1, ptr noundef %2) #0 {
  %4 = alloca ptr, align 8
  %5 = alloca ptr, align 8
  %6 = alloca ptr, align 8
  %7 = alloca ptr, align 8
  %8 = alloca ptr, align 8
  %9 = alloca ptr, align 8
  %10 = alloca ptr, align 8
  %11 = alloca i64, align 8
  store ptr %0, ptr %5, align 8
  store ptr %1, ptr %6, align 8
  store ptr %2, ptr %7, align 8
  %12 = load ptr, ptr %7, align 8
  %13 = icmp ne ptr %12, null
  br i1 %13, label %14, label %16

14:                                               ; preds = %3
  %15 = load ptr, ptr %7, align 8
  store i64 0, ptr %15, align 8
  br label %16

16:                                               ; preds = %14, %3
  %17 = load ptr, ptr %5, align 8
  %18 = load ptr, ptr %17, align 8
  %19 = getelementptr inbounds %struct.JNINativeInterface_, ptr %18, i32 0, i32 6
  %20 = load ptr, ptr %19, align 8
  %21 = load ptr, ptr %5, align 8
  %22 = call ptr %20(ptr noundef %21, ptr noundef @.str.50)
  store ptr %22, ptr %9, align 8
  %23 = load ptr, ptr %9, align 8
  %24 = icmp eq ptr %23, null
  br i1 %24, label %25, label %26

25:                                               ; preds = %16
  store ptr null, ptr %4, align 8
  br label %87

26:                                               ; preds = %16
  %27 = load ptr, ptr %5, align 8
  %28 = load ptr, ptr %27, align 8
  %29 = getelementptr inbounds %struct.JNINativeInterface_, ptr %28, i32 0, i32 94
  %30 = load ptr, ptr %29, align 8
  %31 = load ptr, ptr %5, align 8
  %32 = load ptr, ptr %9, align 8
  %33 = call ptr %30(ptr noundef %31, ptr noundef %32, ptr noundef @.str.30, ptr noundef @.str.17)
  store ptr %33, ptr %10, align 8
  %34 = load ptr, ptr %10, align 8
  %35 = icmp eq ptr %34, null
  br i1 %35, label %36, label %37

36:                                               ; preds = %26
  store ptr null, ptr %4, align 8
  br label %87

37:                                               ; preds = %26
  %38 = load ptr, ptr %5, align 8
  %39 = load ptr, ptr %38, align 8
  %40 = getelementptr inbounds %struct.JNINativeInterface_, ptr %39, i32 0, i32 101
  %41 = load ptr, ptr %40, align 8
  %42 = load ptr, ptr %5, align 8
  %43 = load ptr, ptr %6, align 8
  %44 = load ptr, ptr %10, align 8
  %45 = call i64 %41(ptr noundef %42, ptr noundef %43, ptr noundef %44)
  store i64 %45, ptr %11, align 8
  %46 = call noalias ptr @calloc(i64 noundef 1, i64 noundef 80) #6
  store ptr %46, ptr %8, align 8
  %47 = load ptr, ptr %8, align 8
  %48 = icmp eq ptr %47, null
  br i1 %48, label %49, label %51

49:                                               ; preds = %37
  %50 = load ptr, ptr %5, align 8
  call void @p11ThrowOutOfMemoryError(ptr noundef %50, ptr noundef null)
  store ptr null, ptr %4, align 8
  br label %87

51:                                               ; preds = %37
  %52 = load ptr, ptr %5, align 8
  %53 = load ptr, ptr %6, align 8
  %54 = load ptr, ptr %9, align 8
  %55 = load ptr, ptr %8, align 8
  %56 = getelementptr inbounds %struct.CK_TLS12_KEY_MAT_PARAMS, ptr %55, i32 0, i32 0
  %57 = load ptr, ptr %8, align 8
  %58 = getelementptr inbounds %struct.CK_TLS12_KEY_MAT_PARAMS, ptr %57, i32 0, i32 1
  %59 = load ptr, ptr %8, align 8
  %60 = getelementptr inbounds %struct.CK_TLS12_KEY_MAT_PARAMS, ptr %59, i32 0, i32 2
  %61 = load ptr, ptr %8, align 8
  %62 = getelementptr inbounds %struct.CK_TLS12_KEY_MAT_PARAMS, ptr %61, i32 0, i32 3
  %63 = load ptr, ptr %8, align 8
  %64 = getelementptr inbounds %struct.CK_TLS12_KEY_MAT_PARAMS, ptr %63, i32 0, i32 4
  %65 = load ptr, ptr %8, align 8
  %66 = getelementptr inbounds %struct.CK_TLS12_KEY_MAT_PARAMS, ptr %65, i32 0, i32 5
  call void @keyMatParamToCKKeyMatParam(ptr noundef %52, ptr noundef %53, ptr noundef %54, ptr noundef %56, ptr noundef %58, ptr noundef %60, ptr noundef %62, ptr noundef %64, ptr noundef %66)
  %67 = load ptr, ptr %5, align 8
  %68 = load ptr, ptr %67, align 8
  %69 = getelementptr inbounds %struct.JNINativeInterface_, ptr %68, i32 0, i32 228
  %70 = load ptr, ptr %69, align 8
  %71 = load ptr, ptr %5, align 8
  %72 = call zeroext i8 %70(ptr noundef %71)
  %73 = icmp ne i8 %72, 0
  br i1 %73, label %74, label %75

74:                                               ; preds = %51
  br label %85

75:                                               ; preds = %51
  %76 = load i64, ptr %11, align 8
  %77 = load ptr, ptr %8, align 8
  %78 = getelementptr inbounds %struct.CK_TLS12_KEY_MAT_PARAMS, ptr %77, i32 0, i32 6
  store i64 %76, ptr %78, align 8
  %79 = load ptr, ptr %7, align 8
  %80 = icmp ne ptr %79, null
  br i1 %80, label %81, label %83

81:                                               ; preds = %75
  %82 = load ptr, ptr %7, align 8
  store i64 80, ptr %82, align 8
  br label %83

83:                                               ; preds = %81, %75
  %84 = load ptr, ptr %8, align 8
  store ptr %84, ptr %4, align 8
  br label %87

85:                                               ; preds = %74
  %86 = load ptr, ptr %8, align 8
  call void @free(ptr noundef %86) #7
  store ptr null, ptr %4, align 8
  br label %87

87:                                               ; preds = %85, %83, %49, %36, %25
  %88 = load ptr, ptr %4, align 8
  ret ptr %88
}