; Function Attrs: nounwind uwtable
define hidden noundef ptr @jTls12KeyMatParamToCKTls12KeyMatParamPtr(ptr noundef %0, ptr noundef %1, ptr noundef writeonly %2) local_unnamed_addr #0 {
  %.not = icmp eq ptr %2, null
  br i1 %.not, label %5, label %4

4:                                                ; preds = %3
  store i64 0, ptr %2, align 8
  br label %5

5:                                                ; preds = %4, %3
  %6 = load ptr, ptr %0, align 8
  %7 = getelementptr inbounds i8, ptr %6, i64 48
  %8 = load ptr, ptr %7, align 8
  %9 = tail call ptr %8(ptr noundef nonnull %0, ptr noundef nonnull @.str.50) #8
  %10 = icmp eq ptr %9, null
  br i1 %10, label %39, label %11

11:                                               ; preds = %5
  %12 = load ptr, ptr %0, align 8
  %13 = getelementptr inbounds i8, ptr %12, i64 752
  %14 = load ptr, ptr %13, align 8
  %15 = tail call ptr %14(ptr noundef nonnull %0, ptr noundef nonnull %9, ptr noundef nonnull @.str.30, ptr noundef nonnull @.str.17) #8
  %16 = icmp eq ptr %15, null
  br i1 %16, label %39, label %17

17:                                               ; preds = %11
  %18 = load ptr, ptr %0, align 8
  %19 = getelementptr inbounds i8, ptr %18, i64 808
  %20 = load ptr, ptr %19, align 8
  %21 = tail call i64 %20(ptr noundef nonnull %0, ptr noundef %1, ptr noundef nonnull %15) #8
  %22 = tail call noalias dereferenceable_or_null(80) ptr @calloc(i64 noundef 1, i64 noundef 80) #9
  %23 = icmp eq ptr %22, null
  br i1 %23, label %24, label %25

24:                                               ; preds = %17
  tail call void @p11ThrowOutOfMemoryError(ptr noundef nonnull %0, ptr noundef null) #8
  br label %39

25:                                               ; preds = %17
  %26 = getelementptr inbounds i8, ptr %22, i64 8
  %27 = getelementptr inbounds i8, ptr %22, i64 16
  %28 = getelementptr inbounds i8, ptr %22, i64 24
  %29 = getelementptr inbounds i8, ptr %22, i64 32
  %30 = getelementptr inbounds i8, ptr %22, i64 64
  tail call void @keyMatParamToCKKeyMatParam(ptr noundef nonnull %0, ptr noundef %1, ptr noundef nonnull %9, ptr noundef nonnull %22, ptr noundef nonnull %26, ptr noundef nonnull %27, ptr noundef nonnull %28, ptr noundef nonnull %29, ptr noundef nonnull %30)
  %31 = load ptr, ptr %0, align 8
  %32 = getelementptr inbounds i8, ptr %31, i64 1824
  %33 = load ptr, ptr %32, align 8
  %34 = tail call zeroext i8 %33(ptr noundef nonnull %0) #8
  %.not36 = icmp eq i8 %34, 0
  br i1 %.not36, label %35, label %38

35:                                               ; preds = %25
  %36 = getelementptr inbounds i8, ptr %22, i64 72
  store i64 %21, ptr %36, align 8
  br i1 %.not, label %39, label %37

37:                                               ; preds = %35
  store i64 80, ptr %2, align 8
  br label %39

38:                                               ; preds = %25
  tail call void @free(ptr noundef nonnull %22) #8
  br label %39

39:                                               ; preds = %35, %37, %11, %5, %38, %24
  %.0 = phi ptr [ null, %24 ], [ null, %38 ], [ null, %5 ], [ null, %11 ], [ %22, %37 ], [ %22, %35 ]
  ret ptr %.0
}